target datalayout = "e-m:e-p270:32:32-p271:32:32-p272:64:64-i64:64-i128:128-f80:128-n8:16:32:64-S128"
target triple = "x86_64-pc-linux-gnu"

%struct._php_ps_globals = type { ptr, ptr, ptr, ptr, ptr, i64, ptr, ptr, ptr, i8, i8, ptr, ptr, ptr, i32, ptr, i32, i32, %struct._php_random_status_state_pcgoneseq128xslrr64, %struct._php_random_algo_with_state, i64, i64, i64, i64, %struct.anon, ptr, i8, i8, i8, i8, i8, i8, i8, i8, ptr, %struct._zval_struct, i64, i64, ptr, ptr, ptr, i64, double, i8, i8, i8, i8, i8, i8, ptr }
%struct._php_random_status_state_pcgoneseq128xslrr64 = type { i128 }
%struct._php_random_algo_with_state = type { ptr, ptr }
%struct.anon = type { %struct._zval_struct, %struct._zval_struct, %struct._zval_struct, %struct._zval_struct, %struct._zval_struct, %struct._zval_struct, %struct._zval_struct, %struct._zval_struct, %struct._zval_struct }
%struct._zval_struct = type { %union._zend_value, %union.anon, %union.anon.3 }
%union._zend_value = type { i64 }
%union.anon = type { i32 }
%union.anon.3 = type { i32 }
%struct._zend_array = type { %struct._zend_refcounted_h, %union.anon.5, i32, %union.anon.7, i32, i32, i32, i32, i64, ptr }
%struct._zend_refcounted_h = type { i32, %union.anon.4 }
%union.anon.4 = type { i32 }
%union.anon.5 = type { i32 }
%union.anon.7 = type { ptr }
%struct._zend_reference = type { %struct._zend_refcounted_h, %struct._zval_struct, %union.zend_property_info_source_list }
%union.zend_property_info_source_list = type { ptr }
%struct.smart_str = type { ptr, i64 }
%struct._php_session_rfc1867_progress = type { i64, %struct._zval_struct, %struct.smart_str, i64, i64, double, i8, i8, i64, %struct._zval_struct, %struct._zval_struct, ptr, ptr, %struct._zval_struct }

@ps_globals = global %struct._php_ps_globals zeroinitializer, align 16

; Function Attrs: nounwind uwtable
define internal void @php_session_rfc1867_cleanup(ptr noundef %0) #0 {
  %2 = alloca ptr, align 8
  %3 = alloca ptr, align 8
  %4 = alloca ptr, align 8
  %5 = alloca ptr, align 8
  %6 = alloca ptr, align 8
  %7 = alloca ptr, align 8
  %8 = alloca ptr, align 8
  %9 = alloca ptr, align 8
  %10 = alloca ptr, align 8
  %11 = alloca ptr, align 8
  store ptr %0, ptr %6, align 8
  %12 = call i32 @php_session_initialize()
  store i32 2, ptr getelementptr inbounds (%struct._php_ps_globals, ptr @ps_globals, i32 0, i32 14), align 8
  store ptr getelementptr inbounds (%struct._php_ps_globals, ptr @ps_globals, i32 0, i32 35), ptr %4, align 8
  %13 = load ptr, ptr %4, align 8
  %14 = getelementptr inbounds %struct._zval_struct, ptr %13, i32 0, i32 1
  %15 = load i8, ptr %14, align 8
  %16 = zext i8 %15 to i32
  %17 = icmp eq i32 %16, 10
  br i1 %17, label %18, label %77

18:                                               ; preds = %1
  %19 = load ptr, ptr getelementptr inbounds (%struct._php_ps_globals, ptr @ps_globals, i32 0, i32 35), align 8
  %20 = getelementptr inbounds %struct._zend_reference, ptr %19, i32 0, i32 1
  store ptr %20, ptr %5, align 8
  %21 = load ptr, ptr %5, align 8
  %22 = getelementptr inbounds %struct._zval_struct, ptr %21, i32 0, i32 1
  %23 = load i8, ptr %22, align 8
  %24 = zext i8 %23 to i32
  %25 = icmp eq i32 %24, 7
  br i1 %25, label %26, label %77

26:                                               ; preds = %18
  %27 = load ptr, ptr getelementptr inbounds (%struct._php_ps_globals, ptr @ps_globals, i32 0, i32 35), align 8
  %28 = getelementptr inbounds %struct._zend_reference, ptr %27, i32 0, i32 1
  store ptr %28, ptr %7, align 8
  br label %29

29:                                               ; preds = %26
  %30 = load ptr, ptr %7, align 8
  store ptr %30, ptr %8, align 8
  %31 = load ptr, ptr %8, align 8
  %32 = getelementptr inbounds %struct._zval_struct, ptr %31, i32 0, i32 0
  %33 = load ptr, ptr %32, align 8
  store ptr %33, ptr %9, align 8
  %34 = load ptr, ptr %9, align 8
  %35 = getelementptr inbounds %struct._zend_array, ptr %34, i32 0, i32 0
  store ptr %35, ptr %3, align 8
  %36 = load ptr, ptr %3, align 8
  %37 = load i32, ptr %36, align 4
  %38 = icmp ugt i32 %37, 1
  %39 = xor i1 %38, true
  %40 = xor i1 %39, true
  %41 = zext i1 %40 to i32
  %42 = sext i32 %41 to i64
  %43 = icmp ne i64 %42, 0
  br i1 %43, label %44, label %67

44:                                               ; preds = %29
  br label %45

45:                                               ; preds = %44
  %46 = load ptr, ptr %9, align 8
  %47 = call ptr @zend_array_dup(ptr noundef %46)
  store ptr %47, ptr %10, align 8
  %48 = load ptr, ptr %8, align 8
  store ptr %48, ptr %11, align 8
  %49 = load ptr, ptr %10, align 8
  %50 = load ptr, ptr %11, align 8
  %51 = getelementptr inbounds %struct._zval_struct, ptr %50, i32 0, i32 0
  store ptr %49, ptr %51, align 8
  %52 = load ptr, ptr %11, align 8
  %53 = getelementptr inbounds %struct._zval_struct, ptr %52, i32 0, i32 1
  store i32 775, ptr %53, align 8
  br label %54

54:                                               ; preds = %45
  %55 = load ptr, ptr %9, align 8
  %56 = getelementptr inbounds %struct._zend_array, ptr %55, i32 0, i32 0
  store ptr %56, ptr %2, align 8
  %57 = load ptr, ptr %2, align 8
  %58 = getelementptr inbounds %struct._zend_refcounted_h, ptr %57, i32 0, i32 1
  %59 = load i32, ptr %58, align 4
  %60 = and i32 %59, 64
  %61 = icmp ne i32 %60, 0
  br i1 %61, label %66, label %62

62:                                               ; preds = %54
  %63 = load ptr, ptr %2, align 8
  %64 = load i32, ptr %63, align 4
  %65 = add i32 %64, -1
  store i32 %65, ptr %63, align 4
  br label %66

66:                                               ; preds = %62, %54
  br label %67

67:                                               ; preds = %66, %29
  br label %68

68:                                               ; preds = %67
  %69 = load ptr, ptr %7, align 8
  %70 = getelementptr inbounds %struct._zval_struct, ptr %69, i32 0, i32 0
  %71 = load ptr, ptr %70, align 8
  %72 = load ptr, ptr %6, align 8
  %73 = getelementptr inbounds %struct._php_session_rfc1867_progress, ptr %72, i32 0, i32 2
  %74 = getelementptr inbounds %struct.smart_str, ptr %73, i32 0, i32 0
  %75 = load ptr, ptr %74, align 8
  %76 = call i32 @zend_hash_del(ptr noundef %71, ptr noundef %75)
  br label %77

77:                                               ; preds = %68, %18, %1
  %78 = call i32 @php_session_flush(i32 noundef 1)
  ret void
}