; Function Attrs: nounwind uwtable
define internal fastcc void @php_session_rfc1867_cleanup(ptr nocapture noundef readonly %0) unnamed_addr #0 {
  %2 = tail call fastcc i32 @php_session_initialize(), !range !4
  store i32 2, ptr getelementptr inbounds (%struct._php_ps_globals, ptr @ps_globals, i64 0, i32 14), align 8
  %3 = load i8, ptr getelementptr inbounds (%struct._php_ps_globals, ptr @ps_globals, i64 0, i32 35, i32 1), align 16
  %4 = icmp eq i8 %3, 10
  br i1 %4, label %5, label %28

5:                                                ; preds = %1
  %6 = load ptr, ptr getelementptr inbounds (%struct._php_ps_globals, ptr @ps_globals, i64 0, i32 35), align 8
  %7 = getelementptr inbounds i8, ptr %6, i64 8
  %8 = getelementptr inbounds i8, ptr %6, i64 16
  %9 = load i8, ptr %8, align 8
  %10 = icmp eq i8 %9, 7
  br i1 %10, label %11, label %28

11:                                               ; preds = %5
  %12 = load ptr, ptr %7, align 8
  %13 = load i32, ptr %12, align 4
  %14 = icmp ugt i32 %13, 1
  br i1 %14, label %15, label %23

15:                                               ; preds = %11
  %16 = tail call ptr @zend_array_dup(ptr noundef nonnull %12) #23
  store ptr %16, ptr %7, align 8
  store i32 775, ptr %8, align 8
  %17 = getelementptr inbounds i8, ptr %12, i64 4
  %18 = load i32, ptr %17, align 4
  %19 = and i32 %18, 64
  %.not = icmp eq i32 %19, 0
  br i1 %.not, label %20, label %23

20:                                               ; preds = %15
  %21 = load i32, ptr %12, align 4
  %22 = add i32 %21, -1
  store i32 %22, ptr %12, align 4
  %.pre = load ptr, ptr %7, align 8
  br label %23

23:                                               ; preds = %11, %20, %15
  %24 = phi ptr [ %12, %11 ], [ %.pre, %20 ], [ %16, %15 ]
  %25 = getelementptr inbounds i8, ptr %0, i64 24
  %26 = load ptr, ptr %25, align 8
  %27 = tail call i32 @zend_hash_del(ptr noundef %24, ptr noundef %26) #23
  br label %28

28:                                               ; preds = %23, %5, %1
  %29 = tail call i32 @php_session_flush(i32 noundef 1), !range !4
  ret void
}